; Function Attrs: nounwind sspstrong uwtable
define internal void @mac_writereg(ptr noundef captures(none) %s, i32 noundef %index, i32 noundef %val) #0 {
entry:
  %macaddr = alloca [2 x i32], align 4
  %mac_reg = getelementptr inbounds nuw i8, ptr %s, i64 11376
  %idxprom = sext i32 %index to i64
  %arrayidx = getelementptr [32768 x i32], ptr %mac_reg, i64 0, i64 %idxprom
  store i32 %val, ptr %arrayidx, align 4
  %cmp = icmp eq i32 %index, 5377
  br i1 %cmp, label %if.then, label %if.end

if.then:                                          ; preds = %entry
  %arrayidx2 = getelementptr i8, ptr %s, i64 32880
  %0 = load i32, ptr %arrayidx2, align 16
  store i32 %0, ptr %macaddr, align 4
  %arrayidx5 = getelementptr i8, ptr %s, i64 32884
  %1 = load i32, ptr %arrayidx5, align 4
  %arrayidx7 = getelementptr inbounds nuw i8, ptr %macaddr, i64 4
  store i32 %1, ptr %arrayidx7, align 4
  %nic = getelementptr inbounds nuw i8, ptr %s, i64 2608
  %2 = load ptr, ptr %nic, align 16
  %call8 = tail call ptr @qemu_get_queue(ptr noundef %2) #13
  call void @qemu_format_nic_info_str(ptr noundef %call8, ptr noundef nonnull %macaddr) #13
  br label %if.end

if.end:                                           ; preds = %if.then, %entry
  ret void
}